; Function Attrs: mustprogress uwtable
define void @_ZN3gmx12ForceElement12scheduleTaskEldRKSt8functionIFvS1_IFvvEEEE(ptr noundef nonnull align 8 dereferenceable(304) %0, i64 noundef %1, double noundef %2, ptr noundef nonnull align 8 dereferenceable(32) %3) unnamed_addr #0 align 2 personality ptr @__gxx_personality_v0 {
  %5 = alloca %"class.std::function", align 8
  %6 = getelementptr inbounds i8, ptr %0, i64 120
  %7 = load i8, ptr %6, align 8
  %8 = trunc i8 %7 to i1
  %9 = select i1 %8, i32 211, i32 209
  %10 = getelementptr inbounds i8, ptr %0, i64 48
  %11 = load i8, ptr %10, align 8
  %12 = trunc i8 %11 to i1
  %13 = getelementptr inbounds i8, ptr %0, i64 121
  %14 = load i8, ptr %13, align 1
  %15 = trunc i8 %14 to i1
  %16 = select i1 %12, i1 %15, i1 false
  %17 = select i1 %16, i32 512, i32 0
  %18 = or disjoint i32 %17, %9
  %19 = getelementptr inbounds i8, ptr %0, i64 72
  %20 = load i64, ptr %19, align 8
  %21 = icmp eq i64 %20, %1
  %22 = select i1 %21, i32 256, i32 0
  %23 = or disjoint i32 %18, %22
  %24 = getelementptr inbounds i8, ptr %0, i64 64
  %25 = load i64, ptr %24, align 8
  %26 = icmp eq i64 %25, %1
  %27 = select i1 %26, i32 512, i32 0
  %28 = or i32 %23, %27
  %29 = getelementptr inbounds i8, ptr %0, i64 80
  %30 = load i64, ptr %29, align 8
  %31 = icmp eq i64 %30, %1
  %32 = select i1 %31, i32 1024, i32 0
  %33 = or disjoint i32 %28, %32
  %34 = getelementptr inbounds i8, ptr %0, i64 56
  %35 = load i64, ptr %34, align 8
  %36 = icmp eq i64 %35, %1
  %37 = select i1 %36, i32 4, i32 0
  %38 = or disjoint i32 %33, %37
  %39 = getelementptr inbounds i8, ptr %5, i64 16
  %40 = getelementptr inbounds i8, ptr %5, i64 24
  %41 = getelementptr inbounds i8, ptr %5, i64 8
  store i64 0, ptr %41, align 8
  %42 = tail call noalias noundef nonnull dereferenceable(32) ptr @_Znwm(i64 noundef 32) #21
  store ptr %0, ptr %42, align 16
  %.sroa.2.0..sroa_idx = getelementptr inbounds i8, ptr %42, i64 8
  store i64 %1, ptr %.sroa.2.0..sroa_idx, align 8
  %.sroa.3.0..sroa_idx = getelementptr inbounds i8, ptr %42, i64 16
  store double %2, ptr %.sroa.3.0..sroa_idx, align 16
  %.sroa.4.0..sroa_idx = getelementptr inbounds i8, ptr %42, i64 24
  store i32 %38, ptr %.sroa.4.0..sroa_idx, align 8
  store ptr %42, ptr %5, align 8
  store ptr @"_ZNSt17_Function_handlerIFvvEZN3gmx12ForceElement12scheduleTaskEldRKSt8functionIFvS3_IS0_EEEE3$_0E9_M_invokeERKSt9_Any_data", ptr %40, align 8
  store ptr @"_ZNSt17_Function_handlerIFvvEZN3gmx12ForceElement12scheduleTaskEldRKSt8functionIFvS3_IS0_EEEE3$_0E10_M_managerERSt9_Any_dataRKSB_St18_Manager_operation", ptr %39, align 8
  %43 = getelementptr inbounds i8, ptr %3, i64 16
  %44 = load ptr, ptr %43, align 8
  %.not.i.i = icmp eq ptr %44, null
  br i1 %.not.i.i, label %45, label %46

45:                                               ; preds = %4
  invoke void @_ZSt25__throw_bad_function_callv() #22
          to label %.noexc unwind label %55

.noexc:                                           ; preds = %45
  unreachable

46:                                               ; preds = %4
  %47 = getelementptr inbounds i8, ptr %3, i64 24
  %48 = load ptr, ptr %47, align 8
  invoke void %48(ptr noundef nonnull align 8 dereferenceable(16) %3, ptr noundef nonnull align 8 dereferenceable(32) %5)
          to label %_ZNKSt8functionIFvS_IFvvEEEEclES1_.exit unwind label %55

_ZNKSt8functionIFvS_IFvvEEEEclES1_.exit:          ; preds = %46
  %49 = load ptr, ptr %39, align 8
  %.not.i.i11 = icmp eq ptr %49, null
  br i1 %.not.i.i11, label %_ZNSt8functionIFvvEED2Ev.exit, label %50

50:                                               ; preds = %_ZNKSt8functionIFvS_IFvvEEEEclES1_.exit
  %51 = invoke noundef zeroext i1 %49(ptr noundef nonnull align 8 dereferenceable(16) %5, ptr noundef nonnull align 8 dereferenceable(16) %5, i32 noundef 3)
          to label %_ZNSt8functionIFvvEED2Ev.exit unwind label %52

52:                                               ; preds = %50
  %53 = landingpad { ptr, i32 }
          catch ptr null
  %54 = extractvalue { ptr, i32 } %53, 0
  call void @__clang_call_terminate(ptr %54) #23
  unreachable

_ZNSt8functionIFvvEED2Ev.exit:                    ; preds = %_ZNKSt8functionIFvS_IFvvEEEEclES1_.exit, %50
  ret void

55:                                               ; preds = %46, %45
  %56 = landingpad { ptr, i32 }
          cleanup
  %57 = load ptr, ptr %39, align 8
  %.not.i.i12 = icmp eq ptr %57, null
  br i1 %.not.i.i12, label %_ZNSt8functionIFvvEED2Ev.exit13, label %58

58:                                               ; preds = %55
  %59 = invoke noundef zeroext i1 %57(ptr noundef nonnull align 8 dereferenceable(16) %5, ptr noundef nonnull align 8 dereferenceable(16) %5, i32 noundef 3)
          to label %_ZNSt8functionIFvvEED2Ev.exit13 unwind label %60

60:                                               ; preds = %58
  %61 = landingpad { ptr, i32 }
          catch ptr null
  %62 = extractvalue { ptr, i32 } %61, 0
  call void @__clang_call_terminate(ptr %62) #23
  unreachable

_ZNSt8functionIFvvEED2Ev.exit13:                  ; preds = %55, %58
  resume { ptr, i32 } %56
}